target datalayout = "e-m:e-p270:32:32-p271:32:32-p272:64:64-i64:64-i128:128-f80:128-n8:16:32:64-S128"
target triple = "x86_64-pc-linux-gnu"

@hf_rdm_pd_tcp_comms_status_scope_string = internal global i32 0, align 4
@hf_rdm_pd_tcp_comms_status_broker_ipv4_address = internal global i32 0, align 4
@hf_rdm_pd_tcp_comms_status_broker_ipv6_address = internal global i32 0, align 4
@hf_rdm_pd_tcp_comms_status_broker_port = internal global i32 0, align 4
@hf_rdm_pd_tcp_comms_status_unhealthy_tcp_events = internal global i32 0, align 4

; Function Attrs: null_pointer_is_valid sspstrong uwtable
define internal void @rdm_proto_tree_add_numeric_item(ptr noundef %0, i32 noundef %1, ptr noundef %2, ptr noundef %3, i8 noundef zeroext %4) #1 {
  %6 = alloca ptr, align 8
  %7 = alloca i32, align 4
  %8 = alloca ptr, align 8
  %9 = alloca ptr, align 8
  %10 = alloca i8, align 1
  %11 = alloca i32, align 4
  store ptr %0, ptr %6, align 8
  store i32 %1, ptr %7, align 4
  store ptr %2, ptr %8, align 8
  store ptr %3, ptr %9, align 8
  store i8 %4, ptr %10, align 1
  call void @llvm.lifetime.start.p0(i64 4, ptr %11) #4
  %12 = load ptr, ptr %9, align 8
  %13 = load i32, ptr %12, align 4
  store i32 %13, ptr %11, align 4
  %14 = load ptr, ptr %6, align 8
  %15 = load i32, ptr %7, align 4
  %16 = load ptr, ptr %8, align 8
  %17 = load i32, ptr %11, align 4
  %18 = load i8, ptr %10, align 1
  %19 = zext i8 %18 to i32
  %20 = call ptr @proto_tree_add_item(ptr noundef %14, i32 noundef %15, ptr noundef %16, i32 noundef %17, i32 noundef %19, i32 noundef 0)
  %21 = load i8, ptr %10, align 1
  %22 = zext i8 %21 to i32
  %23 = load ptr, ptr %9, align 8
  %24 = load i32, ptr %23, align 4
  %25 = add i32 %24, %22
  store i32 %25, ptr %23, align 4
  call void @llvm.lifetime.end.p0(i64 4, ptr %11) #4
  ret void
}

; Function Attrs: null_pointer_is_valid sspstrong uwtable
define internal void @rdm_proto_tree_add_ascii_item(ptr noundef %0, i32 noundef %1, ptr noundef %2, ptr noundef %3, i32 noundef %4) #1 {
  %6 = alloca ptr, align 8
  %7 = alloca i32, align 4
  %8 = alloca ptr, align 8
  %9 = alloca ptr, align 8
  %10 = alloca i32, align 4
  %11 = alloca i32, align 4
  store ptr %0, ptr %6, align 8
  store i32 %1, ptr %7, align 4
  store ptr %2, ptr %8, align 8
  store ptr %3, ptr %9, align 8
  store i32 %4, ptr %10, align 4
  call void @llvm.lifetime.start.p0(i64 4, ptr %11) #4
  %12 = load ptr, ptr %9, align 8
  %13 = load i32, ptr %12, align 4
  store i32 %13, ptr %11, align 4
  %14 = load ptr, ptr %6, align 8
  %15 = load i32, ptr %7, align 4
  %16 = load ptr, ptr %8, align 8
  %17 = load i32, ptr %11, align 4
  %18 = load i32, ptr %10, align 4
  %19 = call ptr @proto_tree_add_item(ptr noundef %14, i32 noundef %15, ptr noundef %16, i32 noundef %17, i32 noundef %18, i32 noundef 0)
  %20 = load i32, ptr %10, align 4
  %21 = load ptr, ptr %9, align 8
  %22 = load i32, ptr %21, align 4
  %23 = add i32 %22, %20
  store i32 %23, ptr %21, align 4
  call void @llvm.lifetime.end.p0(i64 4, ptr %11) #4
  ret void
}

; Function Attrs: null_pointer_is_valid sspstrong uwtable
define internal i32 @dissect_rdm_pd_tcp_comms_status(ptr noundef %0, i32 noundef %1, ptr noundef %2, i8 noundef zeroext %3, i8 noundef zeroext %4) #1 {
  %6 = alloca ptr, align 8
  %7 = alloca i32, align 4
  %8 = alloca ptr, align 8
  %9 = alloca i8, align 1
  %10 = alloca i8, align 1
  store ptr %0, ptr %6, align 8
  store i32 %1, ptr %7, align 4
  store ptr %2, ptr %8, align 8
  store i8 %3, ptr %9, align 1
  store i8 %4, ptr %10, align 1
  %11 = load i8, ptr %9, align 1
  %12 = zext i8 %11 to i32
  switch i32 %12, label %43 [
    i32 33, label %13
    i32 48, label %39
  ]

13:                                               ; preds = %5
  br label %14

14:                                               ; preds = %18, %13
  %15 = load i8, ptr %10, align 1
  %16 = zext i8 %15 to i32
  %17 = icmp sge i32 %16, 87
  br i1 %17, label %18, label %38

18:                                               ; preds = %14
  %19 = load ptr, ptr %8, align 8
  %20 = load i32, ptr @hf_rdm_pd_tcp_comms_status_scope_string, align 4
  %21 = load ptr, ptr %6, align 8
  call void @rdm_proto_tree_add_ascii_item(ptr noundef %19, i32 noundef %20, ptr noundef %21, ptr noundef %7, i32 noundef 63)
  %22 = load ptr, ptr %8, align 8
  %23 = load i32, ptr @hf_rdm_pd_tcp_comms_status_broker_ipv4_address, align 4
  %24 = load ptr, ptr %6, align 8
  call void @rdm_proto_tree_add_numeric_item(ptr noundef %22, i32 noundef %23, ptr noundef %24, ptr noundef %7, i8 noundef zeroext 4)
  %25 = load ptr, ptr %8, align 8
  %26 = load i32, ptr @hf_rdm_pd_tcp_comms_status_broker_ipv6_address, align 4
  %27 = load ptr, ptr %6, align 8
  call void @rdm_proto_tree_add_numeric_item(ptr noundef %25, i32 noundef %26, ptr noundef %27, ptr noundef %7, i8 noundef zeroext 16)
  %28 = load ptr, ptr %8, align 8
  %29 = load i32, ptr @hf_rdm_pd_tcp_comms_status_broker_port, align 4
  %30 = load ptr, ptr %6, align 8
  call void @rdm_proto_tree_add_numeric_item(ptr noundef %28, i32 noundef %29, ptr noundef %30, ptr noundef %7, i8 noundef zeroext 2)
  %31 = load ptr, ptr %8, align 8
  %32 = load i32, ptr @hf_rdm_pd_tcp_comms_status_unhealthy_tcp_events, align 4
  %33 = load ptr, ptr %6, align 8
  call void @rdm_proto_tree_add_numeric_item(ptr noundef %31, i32 noundef %32, ptr noundef %33, ptr noundef %7, i8 noundef zeroext 2)
  %34 = load i8, ptr %10, align 1
  %35 = zext i8 %34 to i32
  %36 = sub i32 %35, 87
  %37 = trunc i32 %36 to i8
  store i8 %37, ptr %10, align 1
  br label %14, !llvm.loop !18

38:                                               ; preds = %14
  br label %43

39:                                               ; preds = %5
  %40 = load ptr, ptr %8, align 8
  %41 = load i32, ptr @hf_rdm_pd_tcp_comms_status_scope_string, align 4
  %42 = load ptr, ptr %6, align 8
  call void @rdm_proto_tree_add_ascii_item(ptr noundef %40, i32 noundef %41, ptr noundef %42, ptr noundef %7, i32 noundef 63)
  br label %43

43:                                               ; preds = %5, %39, %38
  %44 = load i32, ptr %7, align 4
  ret i32 %44
}