; Function Attrs: null_pointer_is_valid sspstrong uwtable
define internal fastcc range(i32 23, 0) i32 @dissect_rdm_pd_tcp_comms_status(ptr noundef %0, ptr noundef %1, i8 noundef zeroext %2, i8 noundef zeroext %3) unnamed_addr #1 {
  switch i8 %2, label %.loopexit [
    i8 33, label %.preheader
    i8 48, label %23
  ]

.preheader:                                       ; preds = %4
  %5 = icmp ugt i8 %3, 86
  br i1 %5, label %.lr.ph, label %.loopexit

.lr.ph:                                           ; preds = %.preheader, %.lr.ph
  %.029 = phi i8 [ %21, %.lr.ph ], [ %3, %.preheader ]
  %.128 = phi i32 [ %20, %.lr.ph ], [ 23, %.preheader ]
  %6 = load i32, ptr @hf_rdm_pd_tcp_comms_status_scope_string, align 4
  %7 = tail call ptr @proto_tree_add_item(ptr noundef %1, i32 noundef %6, ptr noundef %0, i32 noundef %.128, i32 noundef 63, i32 noundef 0)
  %8 = add nuw nsw i32 %.128, 63
  %9 = load i32, ptr @hf_rdm_pd_tcp_comms_status_broker_ipv4_address, align 4
  %10 = tail call ptr @proto_tree_add_item(ptr noundef %1, i32 noundef %9, ptr noundef %0, i32 noundef %8, i32 noundef 4, i32 noundef 0)
  %11 = add nuw nsw i32 %.128, 67
  %12 = load i32, ptr @hf_rdm_pd_tcp_comms_status_broker_ipv6_address, align 4
  %13 = tail call ptr @proto_tree_add_item(ptr noundef %1, i32 noundef %12, ptr noundef %0, i32 noundef %11, i32 noundef 16, i32 noundef 0)
  %14 = add nuw nsw i32 %.128, 83
  %15 = load i32, ptr @hf_rdm_pd_tcp_comms_status_broker_port, align 4
  %16 = tail call ptr @proto_tree_add_item(ptr noundef %1, i32 noundef %15, ptr noundef %0, i32 noundef %14, i32 noundef 2, i32 noundef 0)
  %17 = add nuw nsw i32 %.128, 85
  %18 = load i32, ptr @hf_rdm_pd_tcp_comms_status_unhealthy_tcp_events, align 4
  %19 = tail call ptr @proto_tree_add_item(ptr noundef %1, i32 noundef %18, ptr noundef %0, i32 noundef %17, i32 noundef 2, i32 noundef 0)
  %20 = add nuw nsw i32 %.128, 87
  %21 = add i8 %.029, -87
  %22 = icmp ugt i8 %21, 86
  br i1 %22, label %.lr.ph, label %.loopexit, !llvm.loop !11

23:                                               ; preds = %4
  %24 = load i32, ptr @hf_rdm_pd_tcp_comms_status_scope_string, align 4
  %25 = tail call ptr @proto_tree_add_item(ptr noundef %1, i32 noundef %24, ptr noundef %0, i32 noundef 23, i32 noundef 63, i32 noundef 0)
  br label %.loopexit

.loopexit:                                        ; preds = %.lr.ph, %.preheader, %23, %4
  %.027 = phi i32 [ 23, %4 ], [ 86, %23 ], [ 23, %.preheader ], [ %20, %.lr.ph ]
  ret i32 %.027
}